target datalayout = "e-m:e-p270:32:32-p271:32:32-p272:64:64-i64:64-i128:128-f80:128-n8:16:32:64-S128"
target triple = "x86_64-pc-linux-gnu"

@ml_table_leap = internal global [13 x i32] [i32 0, i32 31, i32 29, i32 31, i32 30, i32 31, i32 30, i32 31, i32 31, i32 30, i32 31, i32 30, i32 31], align 16
@ml_table_common = internal global [13 x i32] [i32 0, i32 31, i32 28, i32 31, i32 30, i32 31, i32 30, i32 31, i32 31, i32 30, i32 31, i32 30, i32 31], align 16

; Function Attrs: nounwind uwtable
define hidden i64 @timelib_days_in_month(i64 noundef %0, i64 noundef %1) #0 {
  %3 = alloca i64, align 8
  %4 = alloca i64, align 8
  store i64 %0, ptr %3, align 8, !tbaa !4
  store i64 %1, ptr %4, align 8, !tbaa !4
  %5 = load i64, ptr %3, align 8, !tbaa !4
  %6 = srem i64 %5, 4
  %7 = icmp eq i64 %6, 0
  br i1 %7, label %8, label %20

8:                                                ; preds = %2
  %9 = load i64, ptr %3, align 8, !tbaa !4
  %10 = srem i64 %9, 100
  %11 = icmp ne i64 %10, 0
  br i1 %11, label %16, label %12

12:                                               ; preds = %8
  %13 = load i64, ptr %3, align 8, !tbaa !4
  %14 = srem i64 %13, 400
  %15 = icmp eq i64 %14, 0
  br i1 %15, label %16, label %20

16:                                               ; preds = %12, %8
  %17 = load i64, ptr %4, align 8, !tbaa !4
  %18 = getelementptr inbounds [13 x i32], ptr @ml_table_leap, i64 0, i64 %17
  %19 = load i32, ptr %18, align 4, !tbaa !8
  br label %24

20:                                               ; preds = %12, %2
  %21 = load i64, ptr %4, align 8, !tbaa !4
  %22 = getelementptr inbounds [13 x i32], ptr @ml_table_common, i64 0, i64 %21
  %23 = load i32, ptr %22, align 4, !tbaa !8
  br label %24

24:                                               ; preds = %20, %16
  %25 = phi i32 [ %19, %16 ], [ %23, %20 ]
  %26 = sext i32 %25 to i64
  ret i64 %26
}