; Function Attrs: mustprogress nofree norecurse nosync nounwind willreturn memory(none) uwtable
define hidden range(i64 -2147483648, 2147483648) i64 @timelib_days_in_month(i64 noundef %0, i64 noundef %1) local_unnamed_addr #0 {
  %3 = and i64 %0, 3
  %4 = icmp eq i64 %3, 0
  br i1 %4, label %5, label %9

5:                                                ; preds = %2
  %6 = srem i64 %0, 100
  %.not = icmp ne i64 %6, 0
  %7 = srem i64 %0, 400
  %8 = icmp eq i64 %7, 0
  %or.cond = or i1 %.not, %8
  br i1 %or.cond, label %10, label %9

9:                                                ; preds = %5, %2
  br label %10

10:                                               ; preds = %5, %9
  %ml_table_leap.pn = phi ptr [ @ml_table_common, %9 ], [ @ml_table_leap, %5 ]
  %.in = getelementptr inbounds [13 x i32], ptr %ml_table_leap.pn, i64 0, i64 %1
  %11 = load i32, ptr %.in, align 4, !tbaa !4
  %12 = sext i32 %11 to i64
  ret i64 %12
}